; Function Attrs: mustprogress nounwind uwtable
define void @_ZN18OpenImageIO_v2_6_010Filesystem15last_write_timeENS_17basic_string_viewIcSt11char_traitsIcEEEl(ptr nocapture noundef readonly %path, i64 noundef %time) local_unnamed_addr #3 personality ptr @__gxx_personality_v0 {
entry:
  %times = alloca %struct.utimbuf, align 8
  %ref.tmp = alloca %"class.std::filesystem::__cxx11::path", align 8
  store i64 %time, ptr %times, align 8
  %modtime = getelementptr inbounds i8, ptr %times, i64 8
  store i64 %time, ptr %modtime, align 8
  %0 = load ptr, ptr %path, align 8
  %m_len.i.i = getelementptr inbounds i8, ptr %path, i64 8
  %1 = load i64, ptr %m_len.i.i, align 8
  %add.ptr.i.i = getelementptr inbounds i8, ptr %0, i64 %1
  invoke void @_ZNSt10filesystem7__cxx114pathC2IPKcS1_EET_S5_NS1_6formatE(ptr noundef nonnull align 8 dereferenceable(40) %ref.tmp, ptr noundef %0, ptr noundef %add.ptr.i.i, i8 noundef zeroext 2)
          to label %invoke.cont1 unwind label %terminate.lpad

invoke.cont1:                                     ; preds = %entry
  %call.i = call noundef ptr @_ZNKSt7__cxx1112basic_stringIcSt11char_traitsIcESaIcEE5c_strEv(ptr noundef nonnull align 8 dereferenceable(32) %ref.tmp) #32
  %call2 = call i32 @utime(ptr noundef %call.i, ptr noundef nonnull %times) #32
  %_M_cmpts.i = getelementptr inbounds i8, ptr %ref.tmp, i64 32
  %2 = load ptr, ptr %_M_cmpts.i, align 8
  %cmp.not.i.i.i = icmp eq ptr %2, null
  br i1 %cmp.not.i.i.i, label %_ZNSt10filesystem7__cxx114pathD2Ev.exit, label %if.then.i.i.i

if.then.i.i.i:                                    ; preds = %invoke.cont1
  call void @_ZNKSt10filesystem7__cxx114path5_List13_Impl_deleterclEPNS2_5_ImplE(ptr noundef nonnull align 1 dereferenceable(1) %_M_cmpts.i, ptr noundef nonnull %2) #32
  br label %_ZNSt10filesystem7__cxx114pathD2Ev.exit

_ZNSt10filesystem7__cxx114pathD2Ev.exit:          ; preds = %invoke.cont1, %if.then.i.i.i
  store ptr null, ptr %_M_cmpts.i, align 8
  call void @_ZNSt7__cxx1112basic_stringIcSt11char_traitsIcESaIcEED1Ev(ptr noundef nonnull align 8 dereferenceable(32) %ref.tmp) #32
  ret void

terminate.lpad:                                   ; preds = %entry
  %3 = landingpad { ptr, i32 }
          catch ptr null
  %4 = extractvalue { ptr, i32 } %3, 0
  call void @__clang_call_terminate(ptr %4) #34
  unreachable
}